target datalayout = "e-m:e-p270:32:32-p271:32:32-p272:64:64-i64:64-i128:128-f80:128-n8:16:32:64-S128"
target triple = "x86_64-pc-linux-gnu"

%struct.rpc_state = type { ptr, ptr, ptr, ptr, ptr, ptr, ptr, i64, i64, i64, i32, i32, i32, i8 }
%struct.rpc_in_data = type { ptr, ptr, i32, %struct.check_pktline_state }
%struct.check_pktline_state = type { [4 x i8], i32, i32 }
%struct.active_request_slot = type { ptr, i32, i32, i64, ptr, ptr, ptr, ptr, ptr }

@.str.97 = private unnamed_addr constant [45 x i8] c"remote-curl: bad line length character: %.4s\00", align 1
@.str.98 = private unnamed_addr constant [44 x i8] c"remote-curl: unexpected response end packet\00", align 1

; Function Attrs: nounwind uwtable
define internal void @check_pktline(ptr noundef %0, ptr noundef %1, i64 noundef %2) #0 {
  %4 = alloca ptr, align 8
  %5 = alloca ptr, align 8
  %6 = alloca i64, align 8
  %7 = alloca i32, align 4
  %8 = alloca i32, align 4
  store ptr %0, ptr %4, align 8, !tbaa !159
  store ptr %1, ptr %5, align 8, !tbaa !18
  store i64 %2, ptr %6, align 8, !tbaa !33
  br label %9

9:                                                ; preds = %129, %3
  %10 = load i64, ptr %6, align 8, !tbaa !33
  %11 = icmp ne i64 %10, 0
  br i1 %11, label %12, label %130

12:                                               ; preds = %9
  %13 = load ptr, ptr %4, align 8, !tbaa !159
  %14 = getelementptr inbounds nuw %struct.check_pktline_state, ptr %13, i32 0, i32 2
  %15 = load i32, ptr %14, align 4, !tbaa !161
  %16 = icmp ne i32 %15, 0
  br i1 %16, label %99, label %17

17:                                               ; preds = %12
  call void @llvm.lifetime.start.p0(i64 4, ptr %7) #10
  %18 = load ptr, ptr %4, align 8, !tbaa !159
  %19 = getelementptr inbounds nuw %struct.check_pktline_state, ptr %18, i32 0, i32 1
  %20 = load i32, ptr %19, align 4, !tbaa !162
  %21 = sub nsw i32 4, %20
  store i32 %21, ptr %7, align 4, !tbaa !4
  %22 = load i32, ptr %7, align 4, !tbaa !4
  %23 = sext i32 %22 to i64
  %24 = load i64, ptr %6, align 8, !tbaa !33
  %25 = icmp ugt i64 %23, %24
  br i1 %25, label %26, label %29

26:                                               ; preds = %17
  %27 = load i64, ptr %6, align 8, !tbaa !33
  %28 = trunc i64 %27 to i32
  store i32 %28, ptr %7, align 4, !tbaa !4
  br label %29

29:                                               ; preds = %26, %17
  %30 = load ptr, ptr %4, align 8, !tbaa !159
  %31 = getelementptr inbounds nuw %struct.check_pktline_state, ptr %30, i32 0, i32 0
  %32 = load ptr, ptr %4, align 8, !tbaa !159
  %33 = getelementptr inbounds nuw %struct.check_pktline_state, ptr %32, i32 0, i32 1
  %34 = load i32, ptr %33, align 4, !tbaa !162
  %35 = sext i32 %34 to i64
  %36 = getelementptr inbounds [4 x i8], ptr %31, i64 0, i64 %35
  %37 = load ptr, ptr %5, align 8, !tbaa !18
  %38 = load i32, ptr %7, align 4, !tbaa !4
  %39 = sext i32 %38 to i64
  call void @llvm.memcpy.p0.p0.i64(ptr align 1 %36, ptr align 1 %37, i64 %39, i1 false)
  %40 = load i32, ptr %7, align 4, !tbaa !4
  %41 = load ptr, ptr %4, align 8, !tbaa !159
  %42 = getelementptr inbounds nuw %struct.check_pktline_state, ptr %41, i32 0, i32 1
  %43 = load i32, ptr %42, align 4, !tbaa !162
  %44 = add nsw i32 %43, %40
  store i32 %44, ptr %42, align 4, !tbaa !162
  %45 = load i32, ptr %7, align 4, !tbaa !4
  %46 = load ptr, ptr %5, align 8, !tbaa !18
  %47 = sext i32 %45 to i64
  %48 = getelementptr inbounds i8, ptr %46, i64 %47
  store ptr %48, ptr %5, align 8, !tbaa !18
  %49 = load i32, ptr %7, align 4, !tbaa !4
  %50 = sext i32 %49 to i64
  %51 = load i64, ptr %6, align 8, !tbaa !33
  %52 = sub i64 %51, %50
  store i64 %52, ptr %6, align 8, !tbaa !33
  %53 = load ptr, ptr %4, align 8, !tbaa !159
  %54 = getelementptr inbounds nuw %struct.check_pktline_state, ptr %53, i32 0, i32 1
  %55 = load i32, ptr %54, align 4, !tbaa !162
  %56 = icmp eq i32 %55, 4
  br i1 %56, label %57, label %98

57:                                               ; preds = %29
  %58 = load ptr, ptr %4, align 8, !tbaa !159
  %59 = getelementptr inbounds nuw %struct.check_pktline_state, ptr %58, i32 0, i32 0
  %60 = getelementptr inbounds [4 x i8], ptr %59, i64 0, i64 0
  %61 = call i32 @packet_length(ptr noundef %60, i64 noundef 4)
  %62 = load ptr, ptr %4, align 8, !tbaa !159
  %63 = getelementptr inbounds nuw %struct.check_pktline_state, ptr %62, i32 0, i32 2
  store i32 %61, ptr %63, align 4, !tbaa !161
  %64 = load ptr, ptr %4, align 8, !tbaa !159
  %65 = getelementptr inbounds nuw %struct.check_pktline_state, ptr %64, i32 0, i32 2
  %66 = load i32, ptr %65, align 4, !tbaa !161
  %67 = icmp slt i32 %66, 0
  br i1 %67, label %68, label %73

68:                                               ; preds = %57
  %69 = call ptr @_(ptr noundef @.str.97)
  %70 = load ptr, ptr %4, align 8, !tbaa !159
  %71 = getelementptr inbounds nuw %struct.check_pktline_state, ptr %70, i32 0, i32 0
  %72 = getelementptr inbounds [4 x i8], ptr %71, i64 0, i64 0
  call void (ptr, ...) @die(ptr noundef %69, ptr noundef %72) #11
  unreachable

73:                                               ; preds = %57
  %74 = load ptr, ptr %4, align 8, !tbaa !159
  %75 = getelementptr inbounds nuw %struct.check_pktline_state, ptr %74, i32 0, i32 2
  %76 = load i32, ptr %75, align 4, !tbaa !161
  %77 = icmp eq i32 %76, 2
  br i1 %77, label %78, label %80

78:                                               ; preds = %73
  %79 = call ptr @_(ptr noundef @.str.98)
  call void (ptr, ...) @die(ptr noundef %79) #11
  unreachable

80:                                               ; preds = %73
  %81 = load ptr, ptr %4, align 8, !tbaa !159
  %82 = getelementptr inbounds nuw %struct.check_pktline_state, ptr %81, i32 0, i32 2
  %83 = load i32, ptr %82, align 4, !tbaa !161
  %84 = icmp slt i32 %83, 4
  br i1 %84, label %85, label %88

85:                                               ; preds = %80
  %86 = load ptr, ptr %4, align 8, !tbaa !159
  %87 = getelementptr inbounds nuw %struct.check_pktline_state, ptr %86, i32 0, i32 2
  store i32 0, ptr %87, align 4, !tbaa !161
  br label %93

88:                                               ; preds = %80
  %89 = load ptr, ptr %4, align 8, !tbaa !159
  %90 = getelementptr inbounds nuw %struct.check_pktline_state, ptr %89, i32 0, i32 2
  %91 = load i32, ptr %90, align 4, !tbaa !161
  %92 = sub nsw i32 %91, 4
  store i32 %92, ptr %90, align 4, !tbaa !161
  br label %93

93:                                               ; preds = %88, %85
  br label %94

94:                                               ; preds = %93
  br label %95

95:                                               ; preds = %94
  %96 = load ptr, ptr %4, align 8, !tbaa !159
  %97 = getelementptr inbounds nuw %struct.check_pktline_state, ptr %96, i32 0, i32 1
  store i32 0, ptr %97, align 4, !tbaa !162
  br label %98

98:                                               ; preds = %95, %29
  call void @llvm.lifetime.end.p0(i64 4, ptr %7) #10
  br label %99

99:                                               ; preds = %98, %12
  %100 = load ptr, ptr %4, align 8, !tbaa !159
  %101 = getelementptr inbounds nuw %struct.check_pktline_state, ptr %100, i32 0, i32 2
  %102 = load i32, ptr %101, align 4, !tbaa !161
  %103 = icmp ne i32 %102, 0
  br i1 %103, label %104, label %129

104:                                              ; preds = %99
  call void @llvm.lifetime.start.p0(i64 4, ptr %8) #10
  %105 = load ptr, ptr %4, align 8, !tbaa !159
  %106 = getelementptr inbounds nuw %struct.check_pktline_state, ptr %105, i32 0, i32 2
  %107 = load i32, ptr %106, align 4, !tbaa !161
  store i32 %107, ptr %8, align 4, !tbaa !4
  %108 = load i32, ptr %8, align 4, !tbaa !4
  %109 = sext i32 %108 to i64
  %110 = load i64, ptr %6, align 8, !tbaa !33
  %111 = icmp ugt i64 %109, %110
  br i1 %111, label %112, label %115

112:                                              ; preds = %104
  %113 = load i64, ptr %6, align 8, !tbaa !33
  %114 = trunc i64 %113 to i32
  store i32 %114, ptr %8, align 4, !tbaa !4
  br label %115

115:                                              ; preds = %112, %104
  %116 = load i32, ptr %8, align 4, !tbaa !4
  %117 = load ptr, ptr %5, align 8, !tbaa !18
  %118 = sext i32 %116 to i64
  %119 = getelementptr inbounds i8, ptr %117, i64 %118
  store ptr %119, ptr %5, align 8, !tbaa !18
  %120 = load i32, ptr %8, align 4, !tbaa !4
  %121 = sext i32 %120 to i64
  %122 = load i64, ptr %6, align 8, !tbaa !33
  %123 = sub i64 %122, %121
  store i64 %123, ptr %6, align 8, !tbaa !33
  %124 = load i32, ptr %8, align 4, !tbaa !4
  %125 = load ptr, ptr %4, align 8, !tbaa !159
  %126 = getelementptr inbounds nuw %struct.check_pktline_state, ptr %125, i32 0, i32 2
  %127 = load i32, ptr %126, align 4, !tbaa !161
  %128 = sub nsw i32 %127, %124
  store i32 %128, ptr %126, align 4, !tbaa !161
  call void @llvm.lifetime.end.p0(i64 4, ptr %8) #10
  br label %129

129:                                              ; preds = %115, %99
  br label %9, !llvm.loop !163

130:                                              ; preds = %9
  ret void
}

; Function Attrs: nounwind uwtable
define internal i64 @rpc_in(ptr noundef %0, i64 noundef %1, i64 noundef %2, ptr noundef %3) #0 {
  %5 = alloca i64, align 8
  %6 = alloca ptr, align 8
  %7 = alloca i64, align 8
  %8 = alloca i64, align 8
  %9 = alloca ptr, align 8
  %10 = alloca i64, align 8
  %11 = alloca ptr, align 8
  %12 = alloca i64, align 8
  %13 = alloca i32, align 4
  store ptr %0, ptr %6, align 8, !tbaa !18
  store i64 %1, ptr %7, align 8, !tbaa !33
  store i64 %2, ptr %8, align 8, !tbaa !33
  store ptr %3, ptr %9, align 8, !tbaa !153
  call void @llvm.lifetime.start.p0(i64 8, ptr %10) #10
  %14 = load i64, ptr %7, align 8, !tbaa !33
  %15 = load i64, ptr %8, align 8, !tbaa !33
  %16 = mul i64 %14, %15
  store i64 %16, ptr %10, align 8, !tbaa !33
  call void @llvm.lifetime.start.p0(i64 8, ptr %11) #10
  %17 = load ptr, ptr %9, align 8, !tbaa !153
  store ptr %17, ptr %11, align 8, !tbaa !155
  call void @llvm.lifetime.start.p0(i64 8, ptr %12) #10
  %18 = load ptr, ptr %11, align 8, !tbaa !155
  %19 = getelementptr inbounds nuw %struct.rpc_in_data, ptr %18, i32 0, i32 1
  %20 = load ptr, ptr %19, align 8, !tbaa !147
  %21 = getelementptr inbounds nuw %struct.active_request_slot, ptr %20, i32 0, i32 0
  %22 = load ptr, ptr %21, align 8, !tbaa !132
  %23 = call i32 (ptr, i32, ...) @curl_easy_getinfo(ptr noundef %22, i32 noundef 2097154, ptr noundef %12)
  %24 = icmp ne i32 %23, 0
  br i1 %24, label %25, label %27

25:                                               ; preds = %4
  %26 = load i64, ptr %10, align 8, !tbaa !33
  store i64 %26, ptr %5, align 8
  store i32 1, ptr %13, align 4
  br label %59

27:                                               ; preds = %4
  %28 = load i64, ptr %12, align 8, !tbaa !33
  %29 = icmp sge i64 %28, 300
  br i1 %29, label %30, label %32

30:                                               ; preds = %27
  %31 = load i64, ptr %10, align 8, !tbaa !33
  store i64 %31, ptr %5, align 8
  store i32 1, ptr %13, align 4
  br label %59

32:                                               ; preds = %27
  %33 = load i64, ptr %10, align 8, !tbaa !33
  %34 = icmp ne i64 %33, 0
  br i1 %34, label %35, label %40

35:                                               ; preds = %32
  %36 = load ptr, ptr %11, align 8, !tbaa !155
  %37 = getelementptr inbounds nuw %struct.rpc_in_data, ptr %36, i32 0, i32 0
  %38 = load ptr, ptr %37, align 8, !tbaa !144
  %39 = getelementptr inbounds nuw %struct.rpc_state, ptr %38, i32 0, i32 12
  store i32 1, ptr %39, align 8, !tbaa !74
  br label %40

40:                                               ; preds = %35, %32
  %41 = load ptr, ptr %11, align 8, !tbaa !155
  %42 = getelementptr inbounds nuw %struct.rpc_in_data, ptr %41, i32 0, i32 2
  %43 = load i32, ptr %42, align 8, !tbaa !148
  %44 = icmp ne i32 %43, 0
  br i1 %44, label %45, label %50

45:                                               ; preds = %40
  %46 = load ptr, ptr %11, align 8, !tbaa !155
  %47 = getelementptr inbounds nuw %struct.rpc_in_data, ptr %46, i32 0, i32 3
  %48 = load ptr, ptr %6, align 8, !tbaa !18
  %49 = load i64, ptr %10, align 8, !tbaa !33
  call void @check_pktline(ptr noundef %47, ptr noundef %48, i64 noundef %49)
  br label %50

50:                                               ; preds = %45, %40
  %51 = load ptr, ptr %11, align 8, !tbaa !155
  %52 = getelementptr inbounds nuw %struct.rpc_in_data, ptr %51, i32 0, i32 0
  %53 = load ptr, ptr %52, align 8, !tbaa !144
  %54 = getelementptr inbounds nuw %struct.rpc_state, ptr %53, i32 0, i32 10
  %55 = load i32, ptr %54, align 8, !tbaa !72
  %56 = load ptr, ptr %6, align 8, !tbaa !18
  %57 = load i64, ptr %10, align 8, !tbaa !33
  call void @write_or_die(i32 noundef %55, ptr noundef %56, i64 noundef %57)
  %58 = load i64, ptr %10, align 8, !tbaa !33
  store i64 %58, ptr %5, align 8
  store i32 1, ptr %13, align 4
  br label %59

59:                                               ; preds = %50, %30, %25
  call void @llvm.lifetime.end.p0(i64 8, ptr %12) #10
  call void @llvm.lifetime.end.p0(i64 8, ptr %11) #10
  call void @llvm.lifetime.end.p0(i64 8, ptr %10) #10
  %60 = load i64, ptr %5, align 8
  ret i64 %60
}