; Function Attrs: nounwind uwtable
define internal noundef i64 @rpc_in(ptr noundef %0, i64 noundef %1, i64 noundef %2, ptr noundef %3) #0 {
  %5 = alloca i64, align 8
  %6 = mul i64 %2, %1
  call void @llvm.lifetime.start.p0(i64 8, ptr nonnull %5) #17
  %7 = getelementptr inbounds nuw i8, ptr %3, i64 8
  %8 = load ptr, ptr %7, align 8, !tbaa !138
  %9 = load ptr, ptr %8, align 8, !tbaa !118
  %10 = call i32 (ptr, i32, ...) @curl_easy_getinfo(ptr noundef %9, i32 noundef 2097154, ptr noundef nonnull %5) #17
  %.not = icmp ne i32 %10, 0
  %11 = load i64, ptr %5, align 8
  %12 = icmp sgt i64 %11, 299
  %or.cond = select i1 %.not, i1 true, i1 %12
  br i1 %or.cond, label %57, label %13

13:                                               ; preds = %4
  %.not16 = icmp eq i64 %6, 0
  %.pre21 = load ptr, ptr %3, align 8, !tbaa !134
  br i1 %.not16, label %check_pktline.exit, label %.thread

.thread:                                          ; preds = %13
  %14 = getelementptr inbounds nuw i8, ptr %.pre21, i64 88
  store i32 1, ptr %14, align 8, !tbaa !92
  %15 = getelementptr inbounds nuw i8, ptr %3, i64 16
  %16 = load i32, ptr %15, align 8, !tbaa !139
  %.not1719 = icmp eq i32 %16, 0
  br i1 %.not1719, label %check_pktline.exit, label %.lr.ph.i

.lr.ph.i:                                         ; preds = %.thread
  %17 = getelementptr inbounds nuw i8, ptr %3, i64 20
  %18 = getelementptr inbounds nuw i8, ptr %3, i64 28
  %19 = getelementptr inbounds nuw i8, ptr %3, i64 24
  %.pre.i = load i32, ptr %18, align 4, !tbaa !142
  br label %20

20:                                               ; preds = %52, %.lr.ph.i
  %21 = phi i32 [ %.pre.i, %.lr.ph.i ], [ %53, %52 ]
  %.03756.i = phi i64 [ %6, %.lr.ph.i ], [ %.2.i, %52 ]
  %.03855.i = phi ptr [ %0, %.lr.ph.i ], [ %.240.i, %52 ]
  %.not43.i = icmp eq i32 %21, 0
  br i1 %.not43.i, label %22, label %.thread.i

22:                                               ; preds = %20
  %23 = load i32, ptr %19, align 4, !tbaa !143
  %24 = sub nsw i32 4, %23
  %25 = sext i32 %24 to i64
  %spec.select51.i = call i64 @llvm.umin.i64(i64 %.03756.i, i64 %25)
  %spec.select.i = trunc i64 %spec.select51.i to i32
  %26 = sext i32 %23 to i64
  %27 = getelementptr inbounds [4 x i8], ptr %17, i64 0, i64 %26
  %sext.i = shl i64 %spec.select51.i, 32
  %28 = ashr exact i64 %sext.i, 32
  call void @llvm.memcpy.p0.p0.i64(ptr nonnull align 1 %27, ptr align 1 %.03855.i, i64 %28, i1 false)
  %29 = load i32, ptr %19, align 4, !tbaa !143
  %30 = add nsw i32 %29, %spec.select.i
  store i32 %30, ptr %19, align 4, !tbaa !143
  %31 = getelementptr inbounds i8, ptr %.03855.i, i64 %28
  %32 = sub i64 %.03756.i, %28
  %33 = icmp eq i32 %30, 4
  br i1 %33, label %34, label %thread-pre-split.i

34:                                               ; preds = %22
  %35 = call i32 @packet_length(ptr noundef nonnull %17, i64 noundef 4) #17
  store i32 %35, ptr %18, align 4, !tbaa !142
  %36 = icmp slt i32 %35, 0
  br i1 %36, label %37, label %39

37:                                               ; preds = %34
  %38 = call fastcc ptr @_(ptr noundef nonnull @.str.97)
  call void (ptr, ...) @die(ptr noundef %38, ptr noundef nonnull %17) #18
  unreachable

39:                                               ; preds = %34
  %40 = icmp eq i32 %35, 2
  br i1 %40, label %41, label %43

41:                                               ; preds = %39
  %42 = call fastcc ptr @_(ptr noundef nonnull @.str.98)
  call void (ptr, ...) @die(ptr noundef %42) #18
  unreachable

43:                                               ; preds = %39
  %storemerge.i = call i32 @llvm.usub.sat.i32(i32 %35, i32 4)
  store i32 %storemerge.i, ptr %18, align 4, !tbaa !142
  store i32 0, ptr %19, align 4, !tbaa !143
  br label %44

thread-pre-split.i:                               ; preds = %22
  %.pr.i = load i32, ptr %18, align 4, !tbaa !142
  br label %44

44:                                               ; preds = %thread-pre-split.i, %43
  %45 = phi i32 [ %.pr.i, %thread-pre-split.i ], [ %storemerge.i, %43 ]
  %.not44.i = icmp eq i32 %45, 0
  br i1 %.not44.i, label %52, label %.thread.i

.thread.i:                                        ; preds = %44, %20
  %.150.i = phi i64 [ %32, %44 ], [ %.03756.i, %20 ]
  %.13949.i = phi ptr [ %31, %44 ], [ %.03855.i, %20 ]
  %46 = phi i32 [ %45, %44 ], [ %21, %20 ]
  %47 = sext i32 %46 to i64
  %spec.select4552.i = call i64 @llvm.umin.i64(i64 %.150.i, i64 %47)
  %spec.select45.i = trunc i64 %spec.select4552.i to i32
  %sext53.i = shl i64 %spec.select4552.i, 32
  %48 = ashr exact i64 %sext53.i, 32
  %49 = getelementptr inbounds i8, ptr %.13949.i, i64 %48
  %50 = sub i64 %.150.i, %48
  %51 = sub nsw i32 %46, %spec.select45.i
  store i32 %51, ptr %18, align 4, !tbaa !142
  br label %52

52:                                               ; preds = %.thread.i, %44
  %53 = phi i32 [ %51, %.thread.i ], [ 0, %44 ]
  %.240.i = phi ptr [ %49, %.thread.i ], [ %31, %44 ]
  %.2.i = phi i64 [ %50, %.thread.i ], [ %32, %44 ]
  %.not.i = icmp eq i64 %.2.i, 0
  br i1 %.not.i, label %check_pktline.exit.loopexit, label %20, !llvm.loop !144

check_pktline.exit.loopexit:                      ; preds = %52
  %.pre = load ptr, ptr %3, align 8, !tbaa !134
  br label %check_pktline.exit

check_pktline.exit:                               ; preds = %check_pktline.exit.loopexit, %13, %.thread
  %54 = phi ptr [ %.pre, %check_pktline.exit.loopexit ], [ %.pre21, %13 ], [ %.pre21, %.thread ]
  %55 = getelementptr inbounds nuw i8, ptr %54, i64 80
  %56 = load i32, ptr %55, align 8, !tbaa !90
  call void @write_or_die(i32 noundef %56, ptr noundef %0, i64 noundef %6) #17
  br label %57

57:                                               ; preds = %4, %check_pktline.exit
  call void @llvm.lifetime.end.p0(i64 8, ptr nonnull %5) #17
  ret i64 %6
}